target datalayout = "e-m:e-p270:32:32-p271:32:32-p272:64:64-i64:64-i128:128-f80:128-n8:16:32:64-S128"
target triple = "x86_64-pc-linux-gnu"

%struct.AVCodecContext = type { ptr, i32, i32, ptr, i32, i32, ptr, ptr, ptr, i64, i32, i32, ptr, i32, %struct.AVRational, %struct.AVRational, %struct.AVRational, i32, i32, i32, i32, i32, %struct.AVRational, i32, i32, i32, i32, i32, i32, i32, i32, i32, i32, i32, ptr, ptr, i32, float, float, float, float, float, float, float, float, float, i32, i32, i32, i32, i32, i32, i32, i32, i32, i32, i32, i32, ptr, ptr, ptr, i32, i32, i32, i32, i32, i32, i32, i32, i32, i32, %struct.AVChannelLayout, i32, i32, i32, i32, i32, i32, i32, i32, ptr, i32, i32, i32, float, float, i32, i32, i32, i32, i32, ptr, i64, i64, float, float, i32, i32, ptr, ptr, i32, i32, i32, i32, i32, ptr, ptr, ptr, ptr, i32, i32, [8 x i64], i32, i32, i32, i32, i32, i32, i32, ptr, ptr, i32, i32, i32, i32, i32, i32, i32, i32, i32, i32, ptr, ptr, i32, i32, ptr, ptr, ptr, ptr, i32, i32, i64, i32, i32, i64, ptr, i64, ptr, i32, ptr, i32 }
%struct.AVRational = type { i32, i32 }
%struct.AVChannelLayout = type { i32, i32, %union.anon, ptr }
%union.anon = type { i64 }
%struct.AVFrame = type { [8 x ptr], [8 x i32], ptr, i32, i32, i32, i32, i32, %struct.AVRational, i64, i64, %struct.AVRational, i32, ptr, i32, i32, [8 x ptr], ptr, i32, ptr, i32, i32, i32, i32, i32, i32, i32, i64, ptr, i32, ptr, ptr, i64, i64, i64, i64, ptr, %struct.AVChannelLayout, i64 }
%struct.AVPixFmtDescriptor = type { ptr, i8, i8, i8, i64, [4 x %struct.AVComponentDescriptor], ptr }
%struct.AVComponentDescriptor = type { i32, i32, i32, i32, i32 }

; Function Attrs: nounwind uwtable
define void @ff_draw_horiz_band(ptr noundef %0, ptr noundef %1, ptr noundef %2, i32 noundef %3, i32 noundef %4, i32 noundef %5, i32 noundef %6, i32 noundef %7) #0 {
  %9 = alloca ptr, align 8
  %10 = alloca ptr, align 8
  %11 = alloca ptr, align 8
  %12 = alloca i32, align 4
  %13 = alloca i32, align 4
  %14 = alloca i32, align 4
  %15 = alloca i32, align 4
  %16 = alloca i32, align 4
  %17 = alloca i32, align 4
  %18 = alloca ptr, align 8
  %19 = alloca ptr, align 8
  %20 = alloca [8 x i32], align 16
  %21 = alloca i32, align 4
  %22 = alloca i32, align 4
  store ptr %0, ptr %9, align 8, !tbaa !4
  store ptr %1, ptr %10, align 8, !tbaa !9
  store ptr %2, ptr %11, align 8, !tbaa !9
  store i32 %3, ptr %12, align 4, !tbaa !11
  store i32 %4, ptr %13, align 4, !tbaa !11
  store i32 %5, ptr %14, align 4, !tbaa !11
  store i32 %6, ptr %15, align 4, !tbaa !11
  store i32 %7, ptr %16, align 4, !tbaa !11
  call void @llvm.lifetime.start.p0(i64 4, ptr %17) #4
  %23 = load i32, ptr %14, align 4, !tbaa !11
  %24 = icmp ne i32 %23, 3
  %25 = zext i1 %24 to i32
  store i32 %25, ptr %17, align 4, !tbaa !11
  call void @llvm.lifetime.start.p0(i64 8, ptr %18) #4
  call void @llvm.lifetime.start.p0(i64 8, ptr %19) #4
  call void @llvm.lifetime.start.p0(i64 32, ptr %20) #4
  %26 = load ptr, ptr %9, align 8, !tbaa !4
  %27 = getelementptr inbounds nuw %struct.AVCodecContext, ptr %26, i32 0, i32 34
  %28 = load ptr, ptr %27, align 8, !tbaa !13
  %29 = icmp ne ptr %28, null
  br i1 %29, label %31, label %30

30:                                               ; preds = %8
  store i32 1, ptr %21, align 4
  br label %141

31:                                               ; preds = %8
  %32 = load i32, ptr %17, align 4, !tbaa !11
  %33 = icmp ne i32 %32, 0
  br i1 %33, label %34, label %39

34:                                               ; preds = %31
  %35 = load i32, ptr %13, align 4, !tbaa !11
  %36 = shl i32 %35, 1
  store i32 %36, ptr %13, align 4, !tbaa !11
  %37 = load i32, ptr %12, align 4, !tbaa !11
  %38 = shl i32 %37, 1
  store i32 %38, ptr %12, align 4, !tbaa !11
  br label %39

39:                                               ; preds = %34, %31
  %40 = load i32, ptr %13, align 4, !tbaa !11
  %41 = load ptr, ptr %9, align 8, !tbaa !4
  %42 = getelementptr inbounds nuw %struct.AVCodecContext, ptr %41, i32 0, i32 19
  %43 = load i32, ptr %42, align 4, !tbaa !32
  %44 = load i32, ptr %12, align 4, !tbaa !11
  %45 = sub nsw i32 %43, %44
  %46 = icmp sgt i32 %40, %45
  br i1 %46, label %47, label %53

47:                                               ; preds = %39
  %48 = load ptr, ptr %9, align 8, !tbaa !4
  %49 = getelementptr inbounds nuw %struct.AVCodecContext, ptr %48, i32 0, i32 19
  %50 = load i32, ptr %49, align 4, !tbaa !32
  %51 = load i32, ptr %12, align 4, !tbaa !11
  %52 = sub nsw i32 %50, %51
  br label %55

53:                                               ; preds = %39
  %54 = load i32, ptr %13, align 4, !tbaa !11
  br label %55

55:                                               ; preds = %53, %47
  %56 = phi i32 [ %52, %47 ], [ %54, %53 ]
  store i32 %56, ptr %13, align 4, !tbaa !11
  %57 = load i32, ptr %17, align 4, !tbaa !11
  %58 = icmp ne i32 %57, 0
  br i1 %58, label %59, label %69

59:                                               ; preds = %55
  %60 = load i32, ptr %15, align 4, !tbaa !11
  %61 = icmp ne i32 %60, 0
  br i1 %61, label %62, label %69

62:                                               ; preds = %59
  %63 = load ptr, ptr %9, align 8, !tbaa !4
  %64 = getelementptr inbounds nuw %struct.AVCodecContext, ptr %63, i32 0, i32 33
  %65 = load i32, ptr %64, align 8, !tbaa !33
  %66 = and i32 %65, 2
  %67 = icmp ne i32 %66, 0
  br i1 %67, label %69, label %68

68:                                               ; preds = %62
  store i32 1, ptr %21, align 4
  br label %141

69:                                               ; preds = %62, %59, %55
  %70 = load ptr, ptr %10, align 8, !tbaa !9
  %71 = getelementptr inbounds nuw %struct.AVFrame, ptr %70, i32 0, i32 7
  %72 = load i32, ptr %71, align 8, !tbaa !34
  %73 = icmp eq i32 %72, 3
  br i1 %73, label %83, label %74

74:                                               ; preds = %69
  %75 = load i32, ptr %16, align 4, !tbaa !11
  %76 = icmp ne i32 %75, 0
  br i1 %76, label %83, label %77

77:                                               ; preds = %74
  %78 = load ptr, ptr %9, align 8, !tbaa !4
  %79 = getelementptr inbounds nuw %struct.AVCodecContext, ptr %78, i32 0, i32 33
  %80 = load i32, ptr %79, align 8, !tbaa !33
  %81 = and i32 %80, 1
  %82 = icmp ne i32 %81, 0
  br i1 %82, label %83, label %85

83:                                               ; preds = %77, %74, %69
  %84 = load ptr, ptr %10, align 8, !tbaa !9
  store ptr %84, ptr %19, align 8, !tbaa !9
  br label %92

85:                                               ; preds = %77
  %86 = load ptr, ptr %11, align 8, !tbaa !9
  %87 = icmp ne ptr %86, null
  br i1 %87, label %88, label %90

88:                                               ; preds = %85
  %89 = load ptr, ptr %11, align 8, !tbaa !9
  store ptr %89, ptr %19, align 8, !tbaa !9
  br label %91

90:                                               ; preds = %85
  store i32 1, ptr %21, align 4
  br label %141

91:                                               ; preds = %88
  br label %92

92:                                               ; preds = %91, %83
  %93 = load ptr, ptr %9, align 8, !tbaa !4
  %94 = getelementptr inbounds nuw %struct.AVCodecContext, ptr %93, i32 0, i32 23
  %95 = load i32, ptr %94, align 8, !tbaa !39
  %96 = call ptr @av_pix_fmt_desc_get(i32 noundef %95)
  store ptr %96, ptr %18, align 8, !tbaa !40
  %97 = load i32, ptr %12, align 4, !tbaa !11
  %98 = load ptr, ptr %19, align 8, !tbaa !9
  %99 = getelementptr inbounds nuw %struct.AVFrame, ptr %98, i32 0, i32 1
  %100 = getelementptr inbounds [8 x i32], ptr %99, i64 0, i64 0
  %101 = load i32, ptr %100, align 8, !tbaa !11
  %102 = mul nsw i32 %97, %101
  %103 = getelementptr inbounds [8 x i32], ptr %20, i64 0, i64 0
  store i32 %102, ptr %103, align 16, !tbaa !11
  %104 = load i32, ptr %12, align 4, !tbaa !11
  %105 = load ptr, ptr %18, align 8, !tbaa !40
  %106 = getelementptr inbounds nuw %struct.AVPixFmtDescriptor, ptr %105, i32 0, i32 3
  %107 = load i8, ptr %106, align 2, !tbaa !42
  %108 = zext i8 %107 to i32
  %109 = ashr i32 %104, %108
  %110 = load ptr, ptr %19, align 8, !tbaa !9
  %111 = getelementptr inbounds nuw %struct.AVFrame, ptr %110, i32 0, i32 1
  %112 = getelementptr inbounds [8 x i32], ptr %111, i64 0, i64 1
  %113 = load i32, ptr %112, align 4, !tbaa !11
  %114 = mul nsw i32 %109, %113
  %115 = getelementptr inbounds [8 x i32], ptr %20, i64 0, i64 2
  store i32 %114, ptr %115, align 8, !tbaa !11
  %116 = getelementptr inbounds [8 x i32], ptr %20, i64 0, i64 1
  store i32 %114, ptr %116, align 4, !tbaa !11
  call void @llvm.lifetime.start.p0(i64 4, ptr %22) #4
  store i32 3, ptr %22, align 4, !tbaa !11
  br label %117

117:                                              ; preds = %125, %92
  %118 = load i32, ptr %22, align 4, !tbaa !11
  %119 = icmp slt i32 %118, 8
  br i1 %119, label %121, label %120

120:                                              ; preds = %117
  store i32 2, ptr %21, align 4
  call void @llvm.lifetime.end.p0(i64 4, ptr %22) #4
  br label %128

121:                                              ; preds = %117
  %122 = load i32, ptr %22, align 4, !tbaa !11
  %123 = sext i32 %122 to i64
  %124 = getelementptr inbounds [8 x i32], ptr %20, i64 0, i64 %123
  store i32 0, ptr %124, align 4, !tbaa !11
  br label %125

125:                                              ; preds = %121
  %126 = load i32, ptr %22, align 4, !tbaa !11
  %127 = add nsw i32 %126, 1
  store i32 %127, ptr %22, align 4, !tbaa !11
  br label %117, !llvm.loop !44

128:                                              ; preds = %120
  br label %129

129:                                              ; preds = %128
  br label %130

130:                                              ; preds = %129
  br label %131

131:                                              ; preds = %130
  %132 = load ptr, ptr %9, align 8, !tbaa !4
  %133 = getelementptr inbounds nuw %struct.AVCodecContext, ptr %132, i32 0, i32 34
  %134 = load ptr, ptr %133, align 8, !tbaa !13
  %135 = load ptr, ptr %9, align 8, !tbaa !4
  %136 = load ptr, ptr %19, align 8, !tbaa !9
  %137 = getelementptr inbounds [8 x i32], ptr %20, i64 0, i64 0
  %138 = load i32, ptr %12, align 4, !tbaa !11
  %139 = load i32, ptr %14, align 4, !tbaa !11
  %140 = load i32, ptr %13, align 4, !tbaa !11
  call void %134(ptr noundef %135, ptr noundef %136, ptr noundef %137, i32 noundef %138, i32 noundef %139, i32 noundef %140)
  store i32 0, ptr %21, align 4
  br label %141

141:                                              ; preds = %131, %90, %68, %30
  call void @llvm.lifetime.end.p0(i64 32, ptr %20) #4
  call void @llvm.lifetime.end.p0(i64 8, ptr %19) #4
  call void @llvm.lifetime.end.p0(i64 8, ptr %18) #4
  call void @llvm.lifetime.end.p0(i64 4, ptr %17) #4
  %142 = load i32, ptr %21, align 4
  switch i32 %142, label %144 [
    i32 0, label %143
    i32 1, label %143
  ]

143:                                              ; preds = %141, %141
  ret void

144:                                              ; preds = %141
  unreachable
}