; Function Attrs: nounwind uwtable
define void @ff_draw_horiz_band(ptr noundef %0, ptr noundef %1, ptr noundef %2, i32 noundef %3, i32 noundef %4, i32 noundef %5, i32 noundef %6, i32 noundef %7) local_unnamed_addr #0 {
  %9 = alloca [8 x i32], align 16
  call void @llvm.lifetime.start.p0(i64 32, ptr nonnull %9) #6
  %10 = getelementptr inbounds nuw i8, ptr %0, i64 184
  %11 = load ptr, ptr %10, align 8, !tbaa !4
  %.not = icmp eq ptr %11, null
  br i1 %.not, label %51, label %12

12:                                               ; preds = %8
  %13 = icmp ne i32 %5, 3
  %14 = zext i1 %13 to i32
  %.039 = shl i32 %4, %14
  %.038 = shl i32 %3, %14
  %15 = getelementptr inbounds nuw i8, ptr %0, i64 116
  %16 = load i32, ptr %15, align 4, !tbaa !27
  %17 = sub nsw i32 %16, %.038
  %18 = tail call i32 @llvm.smin.i32(i32 %.039, i32 %17)
  %19 = icmp ne i32 %6, 0
  %or.cond = and i1 %13, %19
  br i1 %or.cond, label %20, label %24

20:                                               ; preds = %12
  %21 = getelementptr inbounds nuw i8, ptr %0, i64 176
  %22 = load i32, ptr %21, align 8, !tbaa !28
  %23 = and i32 %22, 2
  %.not42 = icmp eq i32 %23, 0
  br i1 %.not42, label %51, label %24

24:                                               ; preds = %20, %12
  %25 = getelementptr inbounds nuw i8, ptr %1, i64 120
  %26 = load i32, ptr %25, align 8, !tbaa !29
  %27 = icmp eq i32 %26, 3
  %28 = icmp ne i32 %7, 0
  %or.cond3 = or i1 %28, %27
  br i1 %or.cond3, label %34, label %29

29:                                               ; preds = %24
  %30 = getelementptr inbounds nuw i8, ptr %0, i64 176
  %31 = load i32, ptr %30, align 8, !tbaa !28
  %32 = and i32 %31, 1
  %.not43 = icmp eq i32 %32, 0
  br i1 %.not43, label %33, label %34

33:                                               ; preds = %29
  %.not44 = icmp eq ptr %2, null
  br i1 %.not44, label %51, label %34

34:                                               ; preds = %33, %24, %29
  %.037 = phi ptr [ %1, %29 ], [ %1, %24 ], [ %2, %33 ]
  %35 = getelementptr inbounds nuw i8, ptr %0, i64 136
  %36 = load i32, ptr %35, align 8, !tbaa !34
  %37 = tail call ptr @av_pix_fmt_desc_get(i32 noundef %36) #6
  %38 = getelementptr inbounds nuw i8, ptr %.037, i64 64
  %39 = load i32, ptr %38, align 8, !tbaa !35
  %40 = mul nsw i32 %39, %.038
  store i32 %40, ptr %9, align 16, !tbaa !35
  %41 = getelementptr inbounds nuw i8, ptr %37, i64 10
  %42 = load i8, ptr %41, align 2, !tbaa !36
  %43 = zext nneg i8 %42 to i32
  %44 = ashr i32 %.038, %43
  %45 = getelementptr inbounds nuw i8, ptr %.037, i64 68
  %46 = load i32, ptr %45, align 4, !tbaa !35
  %47 = mul nsw i32 %44, %46
  %48 = getelementptr inbounds nuw i8, ptr %9, i64 8
  store i32 %47, ptr %48, align 8, !tbaa !35
  %49 = getelementptr inbounds nuw i8, ptr %9, i64 4
  store i32 %47, ptr %49, align 4, !tbaa !35
  %scevgep = getelementptr inbounds nuw i8, ptr %9, i64 12
  call void @llvm.memset.p0.i64(ptr noundef nonnull align 4 dereferenceable(20) %scevgep, i8 0, i64 20, i1 false), !tbaa !35
  %50 = load ptr, ptr %10, align 8, !tbaa !4
  call void %50(ptr noundef nonnull %0, ptr noundef nonnull %.037, ptr noundef nonnull %9, i32 noundef %.038, i32 noundef %5, i32 noundef %18) #6
  br label %51

51:                                               ; preds = %33, %20, %8, %34
  call void @llvm.lifetime.end.p0(i64 32, ptr nonnull %9) #6
  ret void
}